; Function Attrs: mustprogress uwtable
define dso_local noundef zeroext i1 @_ZNK6cmTest17GetPropertyAsBoolERKNSt7__cxx1112basic_stringIcSt11char_traitsIcESaIcEEE(ptr noundef nonnull align 8 dereferenceable(148) %0, ptr noundef nonnull align 8 dereferenceable(32) %1) local_unnamed_addr #3 align 2 {
  %3 = tail call ptr @_ZNK13cmPropertyMap16GetPropertyValueERKNSt7__cxx1112basic_stringIcSt11char_traitsIcESaIcEEE(ptr noundef nonnull align 8 dereferenceable(148) %0, ptr noundef nonnull align 8 dereferenceable(32) %1)
  %.not.i = icmp eq ptr %3, null
  br i1 %.not.i, label %4, label %12

4:                                                ; preds = %2
  %5 = getelementptr inbounds nuw i8, ptr %0, i64 120
  %6 = load ptr, ptr %5, align 8
  %7 = tail call noundef ptr @_ZNK10cmMakefile8GetStateEv(ptr noundef nonnull align 8 dereferenceable(3520) %6)
  %8 = tail call noundef zeroext i1 @_ZNK7cmState17IsPropertyChainedERKNSt7__cxx1112basic_stringIcSt11char_traitsIcESaIcEEEN10cmProperty9ScopeTypeE(ptr noundef nonnull align 8 dereferenceable(705) %7, ptr noundef nonnull align 8 dereferenceable(32) %1, i32 noundef 5)
  br i1 %8, label %9, label %_Z6cmIsOn7cmValue.exit

9:                                                ; preds = %4
  %10 = load ptr, ptr %5, align 8
  %11 = tail call ptr @_ZNK10cmMakefile11GetPropertyERKNSt7__cxx1112basic_stringIcSt11char_traitsIcESaIcEEEb(ptr noundef nonnull align 8 dereferenceable(3520) %10, ptr noundef nonnull align 8 dereferenceable(32) %1, i1 noundef zeroext true)
  %.not7.i = icmp eq ptr %11, null
  br i1 %.not7.i, label %_Z6cmIsOn7cmValue.exit, label %12

12:                                               ; preds = %9, %2
  %.sroa.05.0.i.ph = phi ptr [ %3, %2 ], [ %11, %9 ]
  %13 = tail call { i64, ptr } @_ZNKSt7__cxx1112basic_stringIcSt11char_traitsIcESaIcEEcvSt17basic_string_viewIcS2_EEv(ptr noundef nonnull align 8 dereferenceable(32) %.sroa.05.0.i.ph) #15
  %14 = extractvalue { i64, ptr } %13, 0
  %15 = extractvalue { i64, ptr } %13, 1
  %16 = tail call noundef zeroext i1 @_ZN7cmValue4IsOnESt17basic_string_viewIcSt11char_traitsIcEE(i64 %14, ptr %15) #15
  br label %_Z6cmIsOn7cmValue.exit

_Z6cmIsOn7cmValue.exit:                           ; preds = %9, %4, %12
  %17 = phi i1 [ %16, %12 ], [ false, %4 ], [ false, %9 ]
  ret i1 %17
}